target datalayout = "e-m:e-p270:32:32-p271:32:32-p272:64:64-i64:64-i128:128-f80:128-n8:16:32:64-S128"
target triple = "x86_64-pc-linux-gnu"

@.str.7 = private unnamed_addr constant [35 x i8] c"../openssl/test/bio_memleak_test.c\00", align 1
@.str.8 = private unnamed_addr constant [4 x i8] c"bio\00", align 1
@.str.14 = private unnamed_addr constant [3 x i8] c"12\00", align 1
@.str.15 = private unnamed_addr constant [13 x i8] c"Hello World\0A\00", align 1
@.str.18 = private unnamed_addr constant [2 x i8] c"0\00", align 1
@.str.20 = private unnamed_addr constant [16 x i8] c"\22Hello World\\n\22\00", align 1
@.str.21 = private unnamed_addr constant [23 x i8] c"BIO_read(bio, data, 5)\00", align 1
@.str.22 = private unnamed_addr constant [2 x i8] c"5\00", align 1
@.str.23 = private unnamed_addr constant [5 x i8] c"data\00", align 1
@.str.24 = private unnamed_addr constant [8 x i8] c"\22Hello\22\00", align 1
@.str.25 = private unnamed_addr constant [6 x i8] c"Hello\00", align 1
@.str.26 = private unnamed_addr constant [30 x i8] c"BIO_get_mem_ptr(bio, &bufmem)\00", align 1
@.str.27 = private unnamed_addr constant [26 x i8] c"BIO_write(bio, \22test\22, 4)\00", align 1
@.str.28 = private unnamed_addr constant [5 x i8] c"test\00", align 1
@.str.29 = private unnamed_addr constant [24 x i8] c"BIO_read(bio, data, 16)\00", align 1
@.str.30 = private unnamed_addr constant [2 x i8] c"7\00", align 1
@.str.31 = private unnamed_addr constant [11 x i8] c"\22 World\\n\22\00", align 1
@.str.32 = private unnamed_addr constant [8 x i8] c" World\0A\00", align 1
@.str.33 = private unnamed_addr constant [15 x i8] c"BIO_reset(bio)\00", align 1

; Function Attrs: nounwind uwtable
define internal i32 @test_bio_new_mem_buf() #0 {
  %1 = alloca i32, align 4
  %2 = alloca ptr, align 8
  %3 = alloca ptr, align 8
  %4 = alloca [16 x i8], align 16
  call void @llvm.lifetime.start.p0(i64 4, ptr %1) #3
  store i32 0, ptr %1, align 4, !tbaa !4
  call void @llvm.lifetime.start.p0(i64 8, ptr %2) #3
  call void @llvm.lifetime.start.p0(i64 8, ptr %3) #3
  call void @llvm.lifetime.start.p0(i64 16, ptr %4) #3
  %5 = call ptr @BIO_new_mem_buf(ptr noundef @.str.15, i32 noundef 12)
  store ptr %5, ptr %2, align 8, !tbaa !8
  %6 = load ptr, ptr %2, align 8, !tbaa !8
  %7 = call i32 @test_ptr(ptr noundef @.str.7, i32 noundef 79, ptr noundef @.str.8, ptr noundef %6)
  %8 = icmp ne i32 %7, 0
  br i1 %8, label %10, label %9

9:                                                ; preds = %0
  br label %67

10:                                               ; preds = %0
  %11 = load ptr, ptr %2, align 8, !tbaa !8
  %12 = getelementptr inbounds [16 x i8], ptr %4, i64 0, i64 0
  %13 = call i32 @BIO_read(ptr noundef %11, ptr noundef %12, i32 noundef 5)
  %14 = call i32 @test_int_eq(ptr noundef @.str.7, i32 noundef 81, ptr noundef @.str.21, ptr noundef @.str.22, i32 noundef %13, i32 noundef 5)
  %15 = icmp ne i32 %14, 0
  br i1 %15, label %17, label %16

16:                                               ; preds = %10
  br label %67

17:                                               ; preds = %10
  %18 = getelementptr inbounds [16 x i8], ptr %4, i64 0, i64 0
  %19 = call i32 @test_mem_eq(ptr noundef @.str.7, i32 noundef 83, ptr noundef @.str.23, ptr noundef @.str.24, ptr noundef %18, i64 noundef 5, ptr noundef @.str.25, i64 noundef 5)
  %20 = icmp ne i32 %19, 0
  br i1 %20, label %22, label %21

21:                                               ; preds = %17
  br label %67

22:                                               ; preds = %17
  %23 = load ptr, ptr %2, align 8, !tbaa !8
  %24 = call i64 @BIO_ctrl(ptr noundef %23, i32 noundef 115, i64 noundef 0, ptr noundef %3)
  %25 = trunc i64 %24 to i32
  %26 = call i32 @test_int_gt(ptr noundef @.str.7, i32 noundef 85, ptr noundef @.str.26, ptr noundef @.str.18, i32 noundef %25, i32 noundef 0)
  %27 = icmp ne i32 %26, 0
  br i1 %27, label %29, label %28

28:                                               ; preds = %22
  br label %67

29:                                               ; preds = %22
  %30 = load ptr, ptr %2, align 8, !tbaa !8
  %31 = call i32 @BIO_write(ptr noundef %30, ptr noundef @.str.28, i32 noundef 4)
  %32 = call i32 @test_int_lt(ptr noundef @.str.7, i32 noundef 87, ptr noundef @.str.27, ptr noundef @.str.18, i32 noundef %31, i32 noundef 0)
  %33 = icmp ne i32 %32, 0
  br i1 %33, label %35, label %34

34:                                               ; preds = %29
  br label %67

35:                                               ; preds = %29
  %36 = load ptr, ptr %2, align 8, !tbaa !8
  %37 = getelementptr inbounds [16 x i8], ptr %4, i64 0, i64 0
  %38 = call i32 @BIO_read(ptr noundef %36, ptr noundef %37, i32 noundef 16)
  %39 = call i32 @test_int_eq(ptr noundef @.str.7, i32 noundef 89, ptr noundef @.str.29, ptr noundef @.str.30, i32 noundef %38, i32 noundef 7)
  %40 = icmp ne i32 %39, 0
  br i1 %40, label %42, label %41

41:                                               ; preds = %35
  br label %67

42:                                               ; preds = %35
  %43 = getelementptr inbounds [16 x i8], ptr %4, i64 0, i64 0
  %44 = call i32 @test_mem_eq(ptr noundef @.str.7, i32 noundef 91, ptr noundef @.str.23, ptr noundef @.str.31, ptr noundef %43, i64 noundef 7, ptr noundef @.str.32, i64 noundef 7)
  %45 = icmp ne i32 %44, 0
  br i1 %45, label %47, label %46

46:                                               ; preds = %42
  br label %67

47:                                               ; preds = %42
  %48 = load ptr, ptr %2, align 8, !tbaa !8
  %49 = call i64 @BIO_ctrl(ptr noundef %48, i32 noundef 1, i64 noundef 0, ptr noundef null)
  %50 = trunc i64 %49 to i32
  %51 = call i32 @test_int_gt(ptr noundef @.str.7, i32 noundef 93, ptr noundef @.str.33, ptr noundef @.str.18, i32 noundef %50, i32 noundef 0)
  %52 = icmp ne i32 %51, 0
  br i1 %52, label %54, label %53

53:                                               ; preds = %47
  br label %67

54:                                               ; preds = %47
  %55 = load ptr, ptr %2, align 8, !tbaa !8
  %56 = getelementptr inbounds [16 x i8], ptr %4, i64 0, i64 0
  %57 = call i32 @BIO_read(ptr noundef %55, ptr noundef %56, i32 noundef 16)
  %58 = call i32 @test_int_eq(ptr noundef @.str.7, i32 noundef 95, ptr noundef @.str.29, ptr noundef @.str.14, i32 noundef %57, i32 noundef 12)
  %59 = icmp ne i32 %58, 0
  br i1 %59, label %61, label %60

60:                                               ; preds = %54
  br label %67

61:                                               ; preds = %54
  %62 = getelementptr inbounds [16 x i8], ptr %4, i64 0, i64 0
  %63 = call i32 @test_mem_eq(ptr noundef @.str.7, i32 noundef 97, ptr noundef @.str.23, ptr noundef @.str.20, ptr noundef %62, i64 noundef 12, ptr noundef @.str.15, i64 noundef 12)
  %64 = icmp ne i32 %63, 0
  br i1 %64, label %66, label %65

65:                                               ; preds = %61
  br label %67

66:                                               ; preds = %61
  store i32 1, ptr %1, align 4, !tbaa !4
  br label %67

67:                                               ; preds = %66, %65, %60, %53, %46, %41, %34, %28, %21, %16, %9
  %68 = load ptr, ptr %2, align 8, !tbaa !8
  %69 = call i32 @BIO_free(ptr noundef %68)
  %70 = load i32, ptr %1, align 4, !tbaa !4
  call void @llvm.lifetime.end.p0(i64 16, ptr %4) #3
  call void @llvm.lifetime.end.p0(i64 8, ptr %3) #3
  call void @llvm.lifetime.end.p0(i64 8, ptr %2) #3
  call void @llvm.lifetime.end.p0(i64 4, ptr %1) #3
  ret i32 %70
}