; Function Attrs: nounwind uwtable
define internal range(i32 0, 2) i32 @test_bio_new_mem_buf() #0 {
  %1 = alloca ptr, align 8
  %2 = alloca [16 x i8], align 16
  call void @llvm.lifetime.start.p0(i64 8, ptr nonnull %1) #4
  call void @llvm.lifetime.start.p0(i64 16, ptr nonnull %2) #4
  %3 = tail call ptr @BIO_new_mem_buf(ptr noundef nonnull @.str.15, i32 noundef 12) #4
  %4 = tail call i32 @test_ptr(ptr noundef nonnull @.str.7, i32 noundef 79, ptr noundef nonnull @.str.8, ptr noundef %3) #4
  %.not = icmp eq i32 %4, 0
  br i1 %.not, label %31, label %5

5:                                                ; preds = %0
  %6 = call i32 @BIO_read(ptr noundef %3, ptr noundef nonnull %2, i32 noundef 5) #4
  %7 = call i32 @test_int_eq(ptr noundef nonnull @.str.7, i32 noundef 81, ptr noundef nonnull @.str.21, ptr noundef nonnull @.str.22, i32 noundef %6, i32 noundef 5) #4
  %.not8 = icmp eq i32 %7, 0
  br i1 %.not8, label %31, label %8

8:                                                ; preds = %5
  %9 = call i32 @test_mem_eq(ptr noundef nonnull @.str.7, i32 noundef 83, ptr noundef nonnull @.str.23, ptr noundef nonnull @.str.24, ptr noundef nonnull %2, i64 noundef 5, ptr noundef nonnull @.str.25, i64 noundef 5) #4
  %.not9 = icmp eq i32 %9, 0
  br i1 %.not9, label %31, label %10

10:                                               ; preds = %8
  %11 = call i64 @BIO_ctrl(ptr noundef %3, i32 noundef 115, i64 noundef 0, ptr noundef nonnull %1) #4
  %12 = trunc i64 %11 to i32
  %13 = call i32 @test_int_gt(ptr noundef nonnull @.str.7, i32 noundef 85, ptr noundef nonnull @.str.26, ptr noundef nonnull @.str.18, i32 noundef %12, i32 noundef 0) #4
  %.not10 = icmp eq i32 %13, 0
  br i1 %.not10, label %31, label %14

14:                                               ; preds = %10
  %15 = call i32 @BIO_write(ptr noundef %3, ptr noundef nonnull @.str.28, i32 noundef 4) #4
  %16 = call i32 @test_int_lt(ptr noundef nonnull @.str.7, i32 noundef 87, ptr noundef nonnull @.str.27, ptr noundef nonnull @.str.18, i32 noundef %15, i32 noundef 0) #4
  %.not11 = icmp eq i32 %16, 0
  br i1 %.not11, label %31, label %17

17:                                               ; preds = %14
  %18 = call i32 @BIO_read(ptr noundef %3, ptr noundef nonnull %2, i32 noundef 16) #4
  %19 = call i32 @test_int_eq(ptr noundef nonnull @.str.7, i32 noundef 89, ptr noundef nonnull @.str.29, ptr noundef nonnull @.str.30, i32 noundef %18, i32 noundef 7) #4
  %.not12 = icmp eq i32 %19, 0
  br i1 %.not12, label %31, label %20

20:                                               ; preds = %17
  %21 = call i32 @test_mem_eq(ptr noundef nonnull @.str.7, i32 noundef 91, ptr noundef nonnull @.str.23, ptr noundef nonnull @.str.31, ptr noundef nonnull %2, i64 noundef 7, ptr noundef nonnull @.str.32, i64 noundef 7) #4
  %.not13 = icmp eq i32 %21, 0
  br i1 %.not13, label %31, label %22

22:                                               ; preds = %20
  %23 = call i64 @BIO_ctrl(ptr noundef %3, i32 noundef 1, i64 noundef 0, ptr noundef null) #4
  %24 = trunc i64 %23 to i32
  %25 = call i32 @test_int_gt(ptr noundef nonnull @.str.7, i32 noundef 93, ptr noundef nonnull @.str.33, ptr noundef nonnull @.str.18, i32 noundef %24, i32 noundef 0) #4
  %.not14 = icmp eq i32 %25, 0
  br i1 %.not14, label %31, label %26

26:                                               ; preds = %22
  %27 = call i32 @BIO_read(ptr noundef %3, ptr noundef nonnull %2, i32 noundef 16) #4
  %28 = call i32 @test_int_eq(ptr noundef nonnull @.str.7, i32 noundef 95, ptr noundef nonnull @.str.29, ptr noundef nonnull @.str.14, i32 noundef %27, i32 noundef 12) #4
  %.not15 = icmp eq i32 %28, 0
  br i1 %.not15, label %31, label %29

29:                                               ; preds = %26
  %30 = call i32 @test_mem_eq(ptr noundef nonnull @.str.7, i32 noundef 97, ptr noundef nonnull @.str.23, ptr noundef nonnull @.str.20, ptr noundef nonnull %2, i64 noundef 12, ptr noundef nonnull @.str.15, i64 noundef 12) #4
  %.not16 = icmp ne i32 %30, 0
  %spec.select = zext i1 %.not16 to i32
  br label %31

31:                                               ; preds = %29, %26, %22, %20, %17, %14, %10, %8, %5, %0
  %.0 = phi i32 [ 0, %26 ], [ 0, %22 ], [ 0, %20 ], [ 0, %17 ], [ 0, %14 ], [ 0, %10 ], [ 0, %8 ], [ 0, %5 ], [ 0, %0 ], [ %spec.select, %29 ]
  %32 = call i32 @BIO_free(ptr noundef %3) #4
  call void @llvm.lifetime.end.p0(i64 16, ptr nonnull %2) #4
  call void @llvm.lifetime.end.p0(i64 8, ptr nonnull %1) #4
  ret i32 %.0
}